; Function Attrs: nofree norecurse nosync nounwind memory(readwrite, inaccessiblemem: none) uwtable
define internal void @SDL_Blit_XBGR8888_ABGR8888_Modulate(ptr noundef captures(none) %0) #0 {
  %2 = getelementptr inbounds nuw i8, ptr %0, i64 112
  %3 = load i32, ptr %2, align 8
  %4 = getelementptr inbounds nuw i8, ptr %0, i64 120
  %5 = load i8, ptr %4, align 8
  %6 = zext i8 %5 to i32
  %7 = getelementptr inbounds nuw i8, ptr %0, i64 121
  %8 = load i8, ptr %7, align 1
  %9 = zext i8 %8 to i32
  %10 = getelementptr inbounds nuw i8, ptr %0, i64 122
  %11 = load i8, ptr %10, align 2
  %12 = zext i8 %11 to i32
  %13 = getelementptr inbounds nuw i8, ptr %0, i64 123
  %14 = load i8, ptr %13, align 1
  %15 = getelementptr inbounds nuw i8, ptr %0, i64 52
  %16 = load i32, ptr %15, align 4
  %17 = add nsw i32 %16, -1
  store i32 %17, ptr %15, align 4
  %.not5157 = icmp eq i32 %16, 0
  br i1 %.not5157, label %._crit_edge60, label %.lr.ph59

.lr.ph59:                                         ; preds = %1
  %18 = and i32 %3, 2
  %.not = icmp eq i32 %18, 0
  %19 = zext i8 %14 to i32
  %20 = getelementptr inbounds nuw i8, ptr %0, i64 8
  %21 = getelementptr inbounds nuw i8, ptr %0, i64 40
  %22 = getelementptr inbounds nuw i8, ptr %0, i64 48
  %23 = and i32 %3, 1
  %.not53 = icmp eq i32 %23, 0
  %24 = shl nuw i32 %19, 24
  %25 = select i1 %.not, i32 -16777216, i32 %24
  %26 = getelementptr inbounds nuw i8, ptr %0, i64 24
  %27 = getelementptr inbounds nuw i8, ptr %0, i64 56
  %28 = load i32, ptr %22, align 8
  %29 = icmp eq i32 %28, 0
  br i1 %29, label %.lr.ph59.split.us, label %.lr.ph59.split

.lr.ph59.split.us:                                ; preds = %.lr.ph59
  %30 = load i32, ptr %26, align 8
  %31 = sext i32 %30 to i64
  %32 = load i32, ptr %27, align 8
  %33 = sext i32 %32 to i64
  %.promoted = load ptr, ptr %20, align 8
  %.promoted61 = load ptr, ptr %21, align 8
  %34 = zext i32 %16 to i64
  %35 = mul nsw i64 %34, %31
  %scevgep = getelementptr i8, ptr %.promoted, i64 %35
  %36 = mul nsw i64 %34, %33
  %scevgep68 = getelementptr i8, ptr %.promoted61, i64 %36
  store ptr %scevgep, ptr %20, align 8
  store ptr %scevgep68, ptr %21, align 8
  store i32 -1, ptr %15, align 4
  br label %._crit_edge60

.lr.ph59.splitthread-pre-split:                   ; preds = %._crit_edge
  %.pr = load i32, ptr %22, align 8
  br label %.lr.ph59.split

.lr.ph59.split:                                   ; preds = %.lr.ph59, %.lr.ph59.splitthread-pre-split
  %37 = phi i32 [ %.pr, %.lr.ph59.splitthread-pre-split ], [ %28, %.lr.ph59 ]
  %.not5254 = icmp eq i32 %37, 0
  br i1 %.not5254, label %._crit_edge, label %.lr.ph

.lr.ph:                                           ; preds = %.lr.ph59.split
  %38 = add nsw i32 %37, -1
  %39 = load ptr, ptr %21, align 8
  %40 = load ptr, ptr %20, align 8
  br i1 %.not53, label %.lr.ph.split.us, label %.lr.ph.split

.lr.ph.split.us:                                  ; preds = %.lr.ph, %.lr.ph.split.us
  %41 = phi i32 [ %47, %.lr.ph.split.us ], [ %38, %.lr.ph ]
  %.04856.us = phi ptr [ %46, %.lr.ph.split.us ], [ %39, %.lr.ph ]
  %.04955.us = phi ptr [ %45, %.lr.ph.split.us ], [ %40, %.lr.ph ]
  %42 = load i32, ptr %.04955.us, align 4
  %43 = and i32 %42, 16777215
  %44 = or disjoint i32 %43, %25
  store i32 %44, ptr %.04856.us, align 4
  %45 = getelementptr inbounds nuw i8, ptr %.04955.us, i64 4
  %46 = getelementptr inbounds nuw i8, ptr %.04856.us, i64 4
  %47 = add nsw i32 %41, -1
  %.not52.us = icmp eq i32 %41, 0
  br i1 %.not52.us, label %._crit_edge, label %.lr.ph.split.us, !llvm.loop !109

.lr.ph.split:                                     ; preds = %.lr.ph, %.lr.ph.split
  %48 = phi i32 [ %78, %.lr.ph.split ], [ %38, %.lr.ph ]
  %.04856 = phi ptr [ %77, %.lr.ph.split ], [ %39, %.lr.ph ]
  %.04955 = phi ptr [ %76, %.lr.ph.split ], [ %40, %.lr.ph ]
  %49 = load i32, ptr %.04955, align 4
  %50 = lshr i32 %49, 16
  %51 = and i32 %50, 255
  %52 = lshr i32 %49, 8
  %53 = and i32 %52, 255
  %54 = and i32 %49, 255
  %55 = mul nuw nsw i32 %54, %6
  %56 = add nuw nsw i32 %55, 1
  %57 = lshr i32 %56, 8
  %58 = and i32 %57, 255
  %59 = add nuw nsw i32 %58, %56
  %60 = lshr i32 %59, 8
  %61 = and i32 %60, 255
  %62 = mul nuw nsw i32 %53, %9
  %63 = add nuw nsw i32 %62, 1
  %64 = lshr i32 %63, 8
  %65 = and i32 %64, 255
  %66 = add nuw nsw i32 %65, %63
  %67 = and i32 %66, 65280
  %68 = mul nuw nsw i32 %51, %12
  %69 = add nuw nsw i32 %68, 1
  %70 = shl nuw nsw i32 %69, 8
  %.mask = and i32 %69, 65280
  %71 = add nuw nsw i32 %.mask, %70
  %72 = and i32 %71, 16711680
  %73 = or disjoint i32 %72, %67
  %74 = or disjoint i32 %73, %61
  %75 = or disjoint i32 %74, %25
  store i32 %75, ptr %.04856, align 4
  %76 = getelementptr inbounds nuw i8, ptr %.04955, i64 4
  %77 = getelementptr inbounds nuw i8, ptr %.04856, i64 4
  %78 = add nsw i32 %48, -1
  %.not52 = icmp eq i32 %48, 0
  br i1 %.not52, label %._crit_edge, label %.lr.ph.split, !llvm.loop !109

._crit_edge:                                      ; preds = %.lr.ph.split, %.lr.ph.split.us, %.lr.ph59.split
  %79 = load i32, ptr %26, align 8
  %80 = load ptr, ptr %20, align 8
  %81 = sext i32 %79 to i64
  %82 = getelementptr inbounds i8, ptr %80, i64 %81
  store ptr %82, ptr %20, align 8
  %83 = load i32, ptr %27, align 8
  %84 = load ptr, ptr %21, align 8
  %85 = sext i32 %83 to i64
  %86 = getelementptr inbounds i8, ptr %84, i64 %85
  store ptr %86, ptr %21, align 8
  %87 = load i32, ptr %15, align 4
  %88 = add nsw i32 %87, -1
  store i32 %88, ptr %15, align 4
  %.not51 = icmp eq i32 %87, 0
  br i1 %.not51, label %._crit_edge60, label %.lr.ph59.splitthread-pre-split, !llvm.loop !110

._crit_edge60:                                    ; preds = %._crit_edge, %.lr.ph59.split.us, %1
  ret void
}